target datalayout = "e-m:e-p270:32:32-p271:32:32-p272:64:64-i64:64-i128:128-f80:128-n8:16:32:64-S128"
target triple = "x86_64-pc-linux-gnu"

%"struct.std::pair" = type { ptr, ptr }
%"class.std::initializer_list" = type { ptr, i64 }
%class.anon.8 = type { ptr, ptr, ptr, ptr }

; Function Attrs: noinline noreturn nounwind uwtable
define linkonce_odr hidden void @__clang_call_terminate(ptr noundef %0) #15 comdat {
  %2 = call ptr @__cxa_begin_catch(ptr %0) #24
  call void @_ZSt9terminatev() #26
  unreachable
}

; Function Attrs: mustprogress nounwind uwtable
define linkonce_odr void @_ZNSt4pairIPK10Elf64_ShdrPK9Elf64_SymEC2IDnDnTnNSt9enable_ifIXaaclsr5_PCCPE22_MoveConstructiblePairIT_T0_EEclsr5_PCCPE30_ImplicitlyMoveConvertiblePairIS9_SA_EEEbE4typeELb1EEEOS9_OSA_(ptr noundef nonnull align 8 dereferenceable(16) %0, ptr noundef nonnull align 8 dereferenceable(8) %1, ptr noundef nonnull align 8 dereferenceable(8) %2) unnamed_addr #0 comdat align 2 {
  %4 = alloca ptr, align 8
  %5 = alloca ptr, align 8
  %6 = alloca ptr, align 8
  store ptr %0, ptr %4, align 8, !tbaa !158
  store ptr %1, ptr %5, align 8, !tbaa !161
  store ptr %2, ptr %6, align 8, !tbaa !161
  %7 = load ptr, ptr %4, align 8
  %8 = getelementptr inbounds nuw %"struct.std::pair", ptr %7, i32 0, i32 0
  store ptr null, ptr %8, align 8, !tbaa !163
  %9 = getelementptr inbounds nuw %"struct.std::pair", ptr %7, i32 0, i32 1
  store ptr null, ptr %9, align 8, !tbaa !165
  ret void
}

; Function Attrs: mustprogress nounwind uwtable
define { ptr, ptr } @_ZNK5folly10symbolizer7ElfFile15getSymbolByNameEPKcSt16initializer_listIjE(ptr noundef nonnull align 8 dereferenceable(576) %0, ptr noundef %1, ptr %2, i64 %3) #0 align 2 personality ptr @__gxx_personality_v0 {
  %5 = alloca %"struct.std::pair", align 8
  %6 = alloca %"class.std::initializer_list", align 8
  %7 = alloca ptr, align 8
  %8 = alloca ptr, align 8
  %9 = alloca ptr, align 8
  %10 = alloca ptr, align 8
  %11 = alloca %class.anon.8, align 8
  %12 = alloca %class.anon.8, align 8
  %13 = alloca %class.anon.8, align 8
  %14 = getelementptr inbounds nuw { ptr, i64 }, ptr %6, i32 0, i32 0
  store ptr %2, ptr %14, align 8
  %15 = getelementptr inbounds nuw { ptr, i64 }, ptr %6, i32 0, i32 1
  store i64 %3, ptr %15, align 8
  store ptr %0, ptr %7, align 8, !tbaa !7
  store ptr %1, ptr %8, align 8, !tbaa !22
  %16 = load ptr, ptr %7, align 8
  call void @llvm.lifetime.start.p0(i64 8, ptr %9) #24
  store ptr null, ptr %9, align 8, !tbaa !153
  call void @llvm.lifetime.start.p0(i64 8, ptr %10) #24
  store ptr null, ptr %10, align 8, !tbaa !153
  invoke void @_ZNSt4pairIPK10Elf64_ShdrPK9Elf64_SymEC2IDnDnTnNSt9enable_ifIXaaclsr5_PCCPE22_MoveConstructiblePairIT_T0_EEclsr5_PCCPE30_ImplicitlyMoveConvertiblePairIS9_SA_EEEbE4typeELb1EEEOS9_OSA_(ptr noundef nonnull align 8 dereferenceable(16) %5, ptr noundef nonnull align 8 dereferenceable(8) %9, ptr noundef nonnull align 8 dereferenceable(8) %10)
          to label %17 unwind label %30

17:                                               ; preds = %4
  call void @llvm.lifetime.end.p0(i64 8, ptr %10) #24
  call void @llvm.lifetime.end.p0(i64 8, ptr %9) #24
  call void @llvm.lifetime.start.p0(i64 32, ptr %11) #24
  %18 = getelementptr inbounds nuw %class.anon.8, ptr %11, i32 0, i32 0
  store ptr %16, ptr %18, align 8, !tbaa !201
  %19 = getelementptr inbounds nuw %class.anon.8, ptr %11, i32 0, i32 1
  store ptr %8, ptr %19, align 8, !tbaa !49
  %20 = getelementptr inbounds nuw %class.anon.8, ptr %11, i32 0, i32 2
  store ptr %5, ptr %20, align 8, !tbaa !158
  %21 = getelementptr inbounds nuw %class.anon.8, ptr %11, i32 0, i32 3
  store ptr %6, ptr %21, align 8, !tbaa !179
  call void @llvm.memcpy.p0.p0.i64(ptr align 8 %12, ptr align 8 %11, i64 32, i1 false), !tbaa.struct !203
  %22 = invoke noundef ptr @"_ZNK5folly10symbolizer7ElfFile23iterateSectionsWithTypeIZNKS1_15getSymbolByNameEPKcSt16initializer_listIjEE3$_0EEPK10Elf64_ShdrjT_"(ptr noundef nonnull align 8 dereferenceable(576) %16, i32 noundef 11, ptr noundef byval(%class.anon.8) align 8 %12)
          to label %23 unwind label %30

23:                                               ; preds = %17
  %24 = icmp ne ptr %22, null
  br i1 %24, label %28, label %25

25:                                               ; preds = %23
  call void @llvm.memcpy.p0.p0.i64(ptr align 8 %13, ptr align 8 %11, i64 32, i1 false), !tbaa.struct !203
  %26 = invoke noundef ptr @"_ZNK5folly10symbolizer7ElfFile23iterateSectionsWithTypeIZNKS1_15getSymbolByNameEPKcSt16initializer_listIjEE3$_0EEPK10Elf64_ShdrjT_"(ptr noundef nonnull align 8 dereferenceable(576) %16, i32 noundef 2, ptr noundef byval(%class.anon.8) align 8 %13)
          to label %27 unwind label %30

27:                                               ; preds = %25
  br label %28

28:                                               ; preds = %27, %23
  call void @llvm.lifetime.end.p0(i64 32, ptr %11) #24
  %29 = load { ptr, ptr }, ptr %5, align 8
  ret { ptr, ptr } %29

30:                                               ; preds = %25, %17, %4
  %31 = landingpad { ptr, i32 }
          catch ptr null
  %32 = extractvalue { ptr, i32 } %31, 0
  call void @__clang_call_terminate(ptr %32) #26
  unreachable
}