; Function Attrs: mustprogress nounwind uwtable
define { ptr, ptr } @_ZNK5folly10symbolizer7ElfFile15getSymbolByNameEPKcSt16initializer_listIjE(ptr noundef nonnull align 8 dereferenceable(576) %0, ptr noundef %1, ptr %2, i64 %3) local_unnamed_addr #4 align 2 personality ptr @__gxx_personality_v0 {
  %5 = alloca %"struct.std::pair", align 8
  %6 = alloca %"class.std::initializer_list", align 8
  %7 = alloca ptr, align 8
  %8 = alloca %class.anon.8, align 8
  %9 = alloca %class.anon.8, align 8
  store ptr %2, ptr %6, align 8
  %10 = getelementptr inbounds nuw i8, ptr %6, i64 8
  store i64 %3, ptr %10, align 8
  store ptr %1, ptr %7, align 8, !tbaa !41
  call void @llvm.memset.p0.i64(ptr noundef nonnull align 8 dereferenceable(16) %5, i8 0, i64 16, i1 false)
  store ptr %0, ptr %8, align 8, !tbaa !91
  %.sroa.5.0..sroa_idx = getelementptr inbounds nuw i8, ptr %8, i64 8
  store ptr %7, ptr %.sroa.5.0..sroa_idx, align 8, !tbaa !105
  %.sroa.6.0..sroa_idx = getelementptr inbounds nuw i8, ptr %8, i64 16
  store ptr %5, ptr %.sroa.6.0..sroa_idx, align 8, !tbaa !89
  %.sroa.7.0..sroa_idx = getelementptr inbounds nuw i8, ptr %8, i64 24
  store ptr %6, ptr %.sroa.7.0..sroa_idx, align 8, !tbaa !107
  %11 = call fastcc noundef ptr @"_ZNK5folly10symbolizer7ElfFile23iterateSectionsWithTypeIZNKS1_15getSymbolByNameEPKcSt16initializer_listIjEE3$_0EEPK10Elf64_ShdrjT_"(ptr noundef nonnull align 8 dereferenceable(576) %0, i32 noundef 11, ptr noundef nonnull byval(%class.anon.8) align 8 %8)
  %.not = icmp eq ptr %11, null
  br i1 %.not, label %12, label %14

12:                                               ; preds = %4
  store ptr %0, ptr %9, align 8, !tbaa !91
  %.sroa.5.0..sroa_idx2 = getelementptr inbounds nuw i8, ptr %9, i64 8
  store ptr %7, ptr %.sroa.5.0..sroa_idx2, align 8, !tbaa !105
  %.sroa.6.0..sroa_idx4 = getelementptr inbounds nuw i8, ptr %9, i64 16
  store ptr %5, ptr %.sroa.6.0..sroa_idx4, align 8, !tbaa !89
  %.sroa.7.0..sroa_idx6 = getelementptr inbounds nuw i8, ptr %9, i64 24
  store ptr %6, ptr %.sroa.7.0..sroa_idx6, align 8, !tbaa !107
  %13 = call fastcc noundef ptr @"_ZNK5folly10symbolizer7ElfFile23iterateSectionsWithTypeIZNKS1_15getSymbolByNameEPKcSt16initializer_listIjEE3$_0EEPK10Elf64_ShdrjT_"(ptr noundef nonnull align 8 dereferenceable(576) %0, i32 noundef 2, ptr noundef nonnull byval(%class.anon.8) align 8 %9)
  br label %14

14:                                               ; preds = %12, %4
  %.fca.0.load = load ptr, ptr %5, align 8
  %.fca.0.insert = insertvalue { ptr, ptr } poison, ptr %.fca.0.load, 0
  %.fca.1.gep = getelementptr inbounds nuw i8, ptr %5, i64 8
  %.fca.1.load = load ptr, ptr %.fca.1.gep, align 8
  %.fca.1.insert = insertvalue { ptr, ptr } %.fca.0.insert, ptr %.fca.1.load, 1
  ret { ptr, ptr } %.fca.1.insert
}